target datalayout = "e-m:e-p270:32:32-p271:32:32-p272:64:64-i64:64-i128:128-f80:128-n8:16:32:64-S128"
target triple = "x86_64-pc-linux-gnu"

@.str.3 = private unnamed_addr constant [2 x i8] c"\0A\00", align 1
@.str.4 = private unnamed_addr constant [37 x i8] c"    splitnets [options] [selection]\0A\00", align 1
@.str.5 = private unnamed_addr constant [58 x i8] c"This command splits multi-bit nets into single-bit nets.\0A\00", align 1
@.str.6 = private unnamed_addr constant [33 x i8] c"    -format char1[char2[char3]]\0A\00", align 1
@.str.7 = private unnamed_addr constant [80 x i8] c"        the first char is inserted between the net name and the bit index, the\0A\00", align 1
@.str.8 = private unnamed_addr constant [77 x i8] c"        second char is appended to the netname. e.g. -format () creates net\0A\00", align 1
@.str.9 = private unnamed_addr constant [78 x i8] c"        names like 'mysignal(42)'. the 3rd character is the range separation\0A\00", align 1
@.str.10 = private unnamed_addr constant [72 x i8] c"        character when creating multi-bit wires. the default is '[]:'.\0A\00", align 1
@.str.11 = private unnamed_addr constant [12 x i8] c"    -ports\0A\00", align 1
@.str.12 = private unnamed_addr constant [79 x i8] c"        also split module ports. per default only internal signals are split.\0A\00", align 1
@.str.13 = private unnamed_addr constant [13 x i8] c"    -driver\0A\00", align 1
@.str.14 = private unnamed_addr constant [81 x i8] c"        don't blindly split nets in individual bits. instead look at the driver\0A\00", align 1
@.str.15 = private unnamed_addr constant [69 x i8] c"        and split nets so that no driver drives only part of a net.\0A\00", align 1

; Function Attrs: mustprogress uwtable
define internal void @_ZN12_GLOBAL__N_113SplitnetsPass4helpEv(ptr noundef nonnull align 8 dereferenceable(104) %0) unnamed_addr #4 align 2 {
  %2 = alloca ptr, align 8
  store ptr %0, ptr %2, align 8
  call void (ptr, ...) @_ZN5Yosys3logEPKcz(ptr noundef @.str.3)
  call void (ptr, ...) @_ZN5Yosys3logEPKcz(ptr noundef @.str.4)
  call void (ptr, ...) @_ZN5Yosys3logEPKcz(ptr noundef @.str.3)
  call void (ptr, ...) @_ZN5Yosys3logEPKcz(ptr noundef @.str.5)
  call void (ptr, ...) @_ZN5Yosys3logEPKcz(ptr noundef @.str.3)
  call void (ptr, ...) @_ZN5Yosys3logEPKcz(ptr noundef @.str.6)
  call void (ptr, ...) @_ZN5Yosys3logEPKcz(ptr noundef @.str.7)
  call void (ptr, ...) @_ZN5Yosys3logEPKcz(ptr noundef @.str.8)
  call void (ptr, ...) @_ZN5Yosys3logEPKcz(ptr noundef @.str.9)
  call void (ptr, ...) @_ZN5Yosys3logEPKcz(ptr noundef @.str.10)
  call void (ptr, ...) @_ZN5Yosys3logEPKcz(ptr noundef @.str.3)
  call void (ptr, ...) @_ZN5Yosys3logEPKcz(ptr noundef @.str.11)
  call void (ptr, ...) @_ZN5Yosys3logEPKcz(ptr noundef @.str.12)
  call void (ptr, ...) @_ZN5Yosys3logEPKcz(ptr noundef @.str.3)
  call void (ptr, ...) @_ZN5Yosys3logEPKcz(ptr noundef @.str.13)
  call void (ptr, ...) @_ZN5Yosys3logEPKcz(ptr noundef @.str.14)
  call void (ptr, ...) @_ZN5Yosys3logEPKcz(ptr noundef @.str.15)
  call void (ptr, ...) @_ZN5Yosys3logEPKcz(ptr noundef @.str.3)
  ret void
}